; Function Attrs: mustprogress nofree norecurse nosync nounwind willreturn memory(argmem: write) uwtable
define void @_ZN5Ipopt21PDPerturbationHandlerC2Ev(ptr nocapture noundef nonnull writeonly align 8 dereferenceable(217) %0) unnamed_addr #3 align 2 personality ptr @__gxx_personality_v0 {
  %2 = getelementptr inbounds i8, ptr %0, i64 8
  store i32 0, ptr %2, align 8
  %3 = getelementptr inbounds i8, ptr %0, i64 16
  tail call void @llvm.memset.p0.i64(ptr noundef nonnull align 8 dereferenceable(33) %3, i8 0, i64 33, i1 false)
  store ptr getelementptr inbounds ({ [9 x ptr] }, ptr @_ZTVN5Ipopt21PDPerturbationHandlerE, i64 0, i32 0, i64 2), ptr %0, align 8
  %4 = getelementptr inbounds i8, ptr %0, i64 208
  store i8 0, ptr %4, align 8
  %5 = getelementptr inbounds i8, ptr %0, i64 212
  store i32 3, ptr %5, align 4
  ret void
}